target datalayout = "e-m:e-p270:32:32-p271:32:32-p272:64:64-i64:64-i128:128-f80:128-n8:16:32:64-S128"
target triple = "x86_64-pc-linux-gnu"

%struct.VP8Io = type { i32, i32, i32, i32, i32, ptr, ptr, ptr, i32, i32, ptr, ptr, ptr, ptr, i32, i64, ptr, i32, i32, i32, i32, i32, i32, i32, i32, i32, ptr }
%struct.WebPDecParams = type { ptr, ptr, ptr, ptr, i32, ptr, ptr, ptr, ptr, ptr, ptr, ptr, ptr, ptr }
%struct.WebPDecBuffer = type { i32, i32, i32, i32, %union.anon, [4 x i32], ptr }
%union.anon = type { %struct.WebPYUVABuffer }
%struct.WebPYUVABuffer = type { ptr, ptr, ptr, ptr, i32, i32, i32, i32, i64, i64, i64, i64 }

; Function Attrs: nounwind uwtable
define internal i32 @EmitYUV(ptr noundef %0, ptr noundef %1) #0 {
  %3 = alloca ptr, align 8
  %4 = alloca ptr, align 8
  %5 = alloca ptr, align 8
  %6 = alloca ptr, align 8
  %7 = alloca ptr, align 8
  %8 = alloca ptr, align 8
  %9 = alloca ptr, align 8
  %10 = alloca i32, align 4
  %11 = alloca i32, align 4
  %12 = alloca i32, align 4
  %13 = alloca i32, align 4
  store ptr %0, ptr %3, align 8, !tbaa !8
  store ptr %1, ptr %4, align 8, !tbaa !3
  call void @llvm.lifetime.start.p0(i64 8, ptr %5) #6
  %14 = load ptr, ptr %4, align 8, !tbaa !3
  %15 = getelementptr inbounds nuw %struct.WebPDecParams, ptr %14, i32 0, i32 0
  %16 = load ptr, ptr %15, align 8, !tbaa !28
  store ptr %16, ptr %5, align 8, !tbaa !61
  call void @llvm.lifetime.start.p0(i64 8, ptr %6) #6
  %17 = load ptr, ptr %5, align 8, !tbaa !61
  %18 = getelementptr inbounds nuw %struct.WebPDecBuffer, ptr %17, i32 0, i32 4
  store ptr %18, ptr %6, align 8, !tbaa !50
  call void @llvm.lifetime.start.p0(i64 8, ptr %7) #6
  %19 = load ptr, ptr %6, align 8, !tbaa !50
  %20 = getelementptr inbounds nuw %struct.WebPYUVABuffer, ptr %19, i32 0, i32 0
  %21 = load ptr, ptr %20, align 8, !tbaa !52
  %22 = load ptr, ptr %3, align 8, !tbaa !8
  %23 = getelementptr inbounds nuw %struct.VP8Io, ptr %22, i32 0, i32 2
  %24 = load i32, ptr %23, align 8, !tbaa !66
  %25 = sext i32 %24 to i64
  %26 = load ptr, ptr %6, align 8, !tbaa !50
  %27 = getelementptr inbounds nuw %struct.WebPYUVABuffer, ptr %26, i32 0, i32 4
  %28 = load i32, ptr %27, align 8, !tbaa !54
  %29 = sext i32 %28 to i64
  %30 = mul nsw i64 %25, %29
  %31 = getelementptr inbounds i8, ptr %21, i64 %30
  store ptr %31, ptr %7, align 8, !tbaa !44
  call void @llvm.lifetime.start.p0(i64 8, ptr %8) #6
  %32 = load ptr, ptr %6, align 8, !tbaa !50
  %33 = getelementptr inbounds nuw %struct.WebPYUVABuffer, ptr %32, i32 0, i32 1
  %34 = load ptr, ptr %33, align 8, !tbaa !55
  %35 = load ptr, ptr %3, align 8, !tbaa !8
  %36 = getelementptr inbounds nuw %struct.VP8Io, ptr %35, i32 0, i32 2
  %37 = load i32, ptr %36, align 8, !tbaa !66
  %38 = ashr i32 %37, 1
  %39 = sext i32 %38 to i64
  %40 = load ptr, ptr %6, align 8, !tbaa !50
  %41 = getelementptr inbounds nuw %struct.WebPYUVABuffer, ptr %40, i32 0, i32 5
  %42 = load i32, ptr %41, align 4, !tbaa !56
  %43 = sext i32 %42 to i64
  %44 = mul nsw i64 %39, %43
  %45 = getelementptr inbounds i8, ptr %34, i64 %44
  store ptr %45, ptr %8, align 8, !tbaa !44
  call void @llvm.lifetime.start.p0(i64 8, ptr %9) #6
  %46 = load ptr, ptr %6, align 8, !tbaa !50
  %47 = getelementptr inbounds nuw %struct.WebPYUVABuffer, ptr %46, i32 0, i32 2
  %48 = load ptr, ptr %47, align 8, !tbaa !57
  %49 = load ptr, ptr %3, align 8, !tbaa !8
  %50 = getelementptr inbounds nuw %struct.VP8Io, ptr %49, i32 0, i32 2
  %51 = load i32, ptr %50, align 8, !tbaa !66
  %52 = ashr i32 %51, 1
  %53 = sext i32 %52 to i64
  %54 = load ptr, ptr %6, align 8, !tbaa !50
  %55 = getelementptr inbounds nuw %struct.WebPYUVABuffer, ptr %54, i32 0, i32 6
  %56 = load i32, ptr %55, align 8, !tbaa !58
  %57 = sext i32 %56 to i64
  %58 = mul nsw i64 %53, %57
  %59 = getelementptr inbounds i8, ptr %48, i64 %58
  store ptr %59, ptr %9, align 8, !tbaa !44
  call void @llvm.lifetime.start.p0(i64 4, ptr %10) #6
  %60 = load ptr, ptr %3, align 8, !tbaa !8
  %61 = getelementptr inbounds nuw %struct.VP8Io, ptr %60, i32 0, i32 3
  %62 = load i32, ptr %61, align 4, !tbaa !18
  store i32 %62, ptr %10, align 4, !tbaa !19
  call void @llvm.lifetime.start.p0(i64 4, ptr %11) #6
  %63 = load ptr, ptr %3, align 8, !tbaa !8
  %64 = getelementptr inbounds nuw %struct.VP8Io, ptr %63, i32 0, i32 4
  %65 = load i32, ptr %64, align 8, !tbaa !20
  store i32 %65, ptr %11, align 4, !tbaa !19
  call void @llvm.lifetime.start.p0(i64 4, ptr %12) #6
  %66 = load i32, ptr %10, align 4, !tbaa !19
  %67 = add nsw i32 %66, 1
  %68 = sdiv i32 %67, 2
  store i32 %68, ptr %12, align 4, !tbaa !19
  call void @llvm.lifetime.start.p0(i64 4, ptr %13) #6
  %69 = load i32, ptr %11, align 4, !tbaa !19
  %70 = add nsw i32 %69, 1
  %71 = sdiv i32 %70, 2
  store i32 %71, ptr %13, align 4, !tbaa !19
  %72 = load ptr, ptr %3, align 8, !tbaa !8
  %73 = getelementptr inbounds nuw %struct.VP8Io, ptr %72, i32 0, i32 5
  %74 = load ptr, ptr %73, align 8, !tbaa !68
  %75 = load ptr, ptr %3, align 8, !tbaa !8
  %76 = getelementptr inbounds nuw %struct.VP8Io, ptr %75, i32 0, i32 8
  %77 = load i32, ptr %76, align 8, !tbaa !69
  %78 = load ptr, ptr %7, align 8, !tbaa !44
  %79 = load ptr, ptr %6, align 8, !tbaa !50
  %80 = getelementptr inbounds nuw %struct.WebPYUVABuffer, ptr %79, i32 0, i32 4
  %81 = load i32, ptr %80, align 8, !tbaa !54
  %82 = load i32, ptr %10, align 4, !tbaa !19
  %83 = load i32, ptr %11, align 4, !tbaa !19
  call void @WebPCopyPlane(ptr noundef %74, i32 noundef %77, ptr noundef %78, i32 noundef %81, i32 noundef %82, i32 noundef %83)
  %84 = load ptr, ptr %3, align 8, !tbaa !8
  %85 = getelementptr inbounds nuw %struct.VP8Io, ptr %84, i32 0, i32 6
  %86 = load ptr, ptr %85, align 8, !tbaa !70
  %87 = load ptr, ptr %3, align 8, !tbaa !8
  %88 = getelementptr inbounds nuw %struct.VP8Io, ptr %87, i32 0, i32 9
  %89 = load i32, ptr %88, align 4, !tbaa !72
  %90 = load ptr, ptr %8, align 8, !tbaa !44
  %91 = load ptr, ptr %6, align 8, !tbaa !50
  %92 = getelementptr inbounds nuw %struct.WebPYUVABuffer, ptr %91, i32 0, i32 5
  %93 = load i32, ptr %92, align 4, !tbaa !56
  %94 = load i32, ptr %12, align 4, !tbaa !19
  %95 = load i32, ptr %13, align 4, !tbaa !19
  call void @WebPCopyPlane(ptr noundef %86, i32 noundef %89, ptr noundef %90, i32 noundef %93, i32 noundef %94, i32 noundef %95)
  %96 = load ptr, ptr %3, align 8, !tbaa !8
  %97 = getelementptr inbounds nuw %struct.VP8Io, ptr %96, i32 0, i32 7
  %98 = load ptr, ptr %97, align 8, !tbaa !71
  %99 = load ptr, ptr %3, align 8, !tbaa !8
  %100 = getelementptr inbounds nuw %struct.VP8Io, ptr %99, i32 0, i32 9
  %101 = load i32, ptr %100, align 4, !tbaa !72
  %102 = load ptr, ptr %9, align 8, !tbaa !44
  %103 = load ptr, ptr %6, align 8, !tbaa !50
  %104 = getelementptr inbounds nuw %struct.WebPYUVABuffer, ptr %103, i32 0, i32 6
  %105 = load i32, ptr %104, align 8, !tbaa !58
  %106 = load i32, ptr %12, align 4, !tbaa !19
  %107 = load i32, ptr %13, align 4, !tbaa !19
  call void @WebPCopyPlane(ptr noundef %98, i32 noundef %101, ptr noundef %102, i32 noundef %105, i32 noundef %106, i32 noundef %107)
  %108 = load ptr, ptr %3, align 8, !tbaa !8
  %109 = getelementptr inbounds nuw %struct.VP8Io, ptr %108, i32 0, i32 4
  %110 = load i32, ptr %109, align 8, !tbaa !20
  call void @llvm.lifetime.end.p0(i64 4, ptr %13) #6
  call void @llvm.lifetime.end.p0(i64 4, ptr %12) #6
  call void @llvm.lifetime.end.p0(i64 4, ptr %11) #6
  call void @llvm.lifetime.end.p0(i64 4, ptr %10) #6
  call void @llvm.lifetime.end.p0(i64 8, ptr %9) #6
  call void @llvm.lifetime.end.p0(i64 8, ptr %8) #6
  call void @llvm.lifetime.end.p0(i64 8, ptr %7) #6
  call void @llvm.lifetime.end.p0(i64 8, ptr %6) #6
  call void @llvm.lifetime.end.p0(i64 8, ptr %5) #6
  ret i32 %110
}