; Function Attrs: nounwind uwtable
define internal i32 @EmitYUV(ptr noundef readonly captures(none) %0, ptr noundef readonly captures(none) %1) #1 {
  %3 = load ptr, ptr %1, align 8, !tbaa !23
  %4 = getelementptr inbounds nuw i8, ptr %3, i64 16
  %5 = load ptr, ptr %4, align 8, !tbaa !36
  %6 = getelementptr inbounds nuw i8, ptr %0, i64 8
  %7 = load i32, ptr %6, align 8, !tbaa !51
  %8 = sext i32 %7 to i64
  %9 = getelementptr inbounds nuw i8, ptr %3, i64 48
  %10 = load i32, ptr %9, align 8, !tbaa !38
  %11 = sext i32 %10 to i64
  %12 = mul nsw i64 %11, %8
  %13 = getelementptr inbounds i8, ptr %5, i64 %12
  %14 = getelementptr inbounds nuw i8, ptr %3, i64 24
  %15 = load ptr, ptr %14, align 8, !tbaa !39
  %16 = ashr i32 %7, 1
  %17 = sext i32 %16 to i64
  %18 = getelementptr inbounds nuw i8, ptr %3, i64 52
  %19 = load i32, ptr %18, align 4, !tbaa !40
  %20 = sext i32 %19 to i64
  %21 = mul nsw i64 %20, %17
  %22 = getelementptr inbounds i8, ptr %15, i64 %21
  %23 = getelementptr inbounds nuw i8, ptr %3, i64 32
  %24 = load ptr, ptr %23, align 8, !tbaa !41
  %25 = getelementptr inbounds nuw i8, ptr %3, i64 56
  %26 = load i32, ptr %25, align 8, !tbaa !42
  %27 = sext i32 %26 to i64
  %28 = mul nsw i64 %27, %17
  %29 = getelementptr inbounds i8, ptr %24, i64 %28
  %30 = getelementptr inbounds nuw i8, ptr %0, i64 12
  %31 = load i32, ptr %30, align 4, !tbaa !14
  %32 = getelementptr inbounds nuw i8, ptr %0, i64 16
  %33 = load i32, ptr %32, align 8, !tbaa !15
  %34 = add nsw i32 %31, 1
  %35 = sdiv i32 %34, 2
  %36 = add nsw i32 %33, 1
  %37 = sdiv i32 %36, 2
  %38 = getelementptr inbounds nuw i8, ptr %0, i64 24
  %39 = load ptr, ptr %38, align 8, !tbaa !53
  %40 = getelementptr inbounds nuw i8, ptr %0, i64 48
  %41 = load i32, ptr %40, align 8, !tbaa !54
  tail call void @WebPCopyPlane(ptr noundef %39, i32 noundef %41, ptr noundef %13, i32 noundef %10, i32 noundef %31, i32 noundef %33) #6
  %42 = getelementptr inbounds nuw i8, ptr %0, i64 32
  %43 = load ptr, ptr %42, align 8, !tbaa !55
  %44 = getelementptr inbounds nuw i8, ptr %0, i64 52
  %45 = load i32, ptr %44, align 4, !tbaa !57
  %46 = load i32, ptr %18, align 4, !tbaa !40
  tail call void @WebPCopyPlane(ptr noundef %43, i32 noundef %45, ptr noundef %22, i32 noundef %46, i32 noundef %35, i32 noundef %37) #6
  %47 = getelementptr inbounds nuw i8, ptr %0, i64 40
  %48 = load ptr, ptr %47, align 8, !tbaa !56
  %49 = load i32, ptr %44, align 4, !tbaa !57
  %50 = load i32, ptr %25, align 8, !tbaa !42
  tail call void @WebPCopyPlane(ptr noundef %48, i32 noundef %49, ptr noundef %29, i32 noundef %50, i32 noundef %35, i32 noundef %37) #6
  %51 = load i32, ptr %32, align 8, !tbaa !15
  ret i32 %51
}